; ModuleID = '9/108.c'
source_filename = "9/108.c"
target datalayout = "e-m:e-p270:32:32-p271:32:32-p272:64:64-i64:64-f80:128-n8:16:32:64-S128"
target triple = "x86_64-pc-linux-gnu"

%struct.patient = type { [10 x i8], i32 }

@.str = private unnamed_addr constant [3 x i8] c"%d\00", align 1
@.str.1 = private unnamed_addr constant [5 x i8] c"%s%d\00", align 1
@.str.2 = private unnamed_addr constant [4 x i8] c"%s\0A\00", align 1

; Function Attrs: noinline nounwind uwtable
define dso_local void @main() #0 {
  %1 = alloca [100 x %struct.patient], align 16
  %2 = alloca [100 x %struct.patient], align 16
  %3 = alloca %struct.patient, align 4
  %4 = alloca i32, align 4
  %5 = alloca i32, align 4
  %6 = alloca i32, align 4
  %7 = alloca i32, align 4
  store i32 0, i32* %5, align 4
  %8 = call i32 (i8*, ...) @__isoc99_scanf(i8* getelementptr inbounds ([3 x i8], [3 x i8]* @.str, i64 0, i64 0), i32* %4)
  store i32 0, i32* %7, align 4
  br label %9

9:                                                ; preds = %42, %0
  %10 = load i32, i32* %7, align 4
  %11 = load i32, i32* %4, align 4
  %12 = icmp slt i32 %10, %11
  br i1 %12, label %13, label %45

13:                                               ; preds = %9
  %14 = load i32, i32* %7, align 4
  %15 = sext i32 %14 to i64
  %16 = getelementptr inbounds [100 x %struct.patient], [100 x %struct.patient]* %1, i64 0, i64 %15
  %17 = getelementptr inbounds %struct.patient, %struct.patient* %16, i32 0, i32 0
  %18 = getelementptr inbounds [10 x i8], [10 x i8]* %17, i64 0, i64 0
  %19 = load i32, i32* %7, align 4
  %20 = sext i32 %19 to i64
  %21 = getelementptr inbounds [100 x %struct.patient], [100 x %struct.patient]* %1, i64 0, i64 %20
  %22 = getelementptr inbounds %struct.patient, %struct.patient* %21, i32 0, i32 1
  %23 = call i32 (i8*, ...) @__isoc99_scanf(i8* getelementptr inbounds ([5 x i8], [5 x i8]* @.str.1, i64 0, i64 0), i8* %18, i32* %22)
  %24 = load i32, i32* %7, align 4
  %25 = sext i32 %24 to i64
  %26 = getelementptr inbounds [100 x %struct.patient], [100 x %struct.patient]* %1, i64 0, i64 %25
  %27 = getelementptr inbounds %struct.patient, %struct.patient* %26, i32 0, i32 1
  %28 = load i32, i32* %27, align 4
  %29 = icmp sge i32 %28, 60
  br i1 %29, label %30, label %41

30:                                               ; preds = %13
  %31 = load i32, i32* %5, align 4
  %32 = sext i32 %31 to i64
  %33 = getelementptr inbounds [100 x %struct.patient], [100 x %struct.patient]* %2, i64 0, i64 %32
  %34 = load i32, i32* %7, align 4
  %35 = sext i32 %34 to i64
  %36 = getelementptr inbounds [100 x %struct.patient], [100 x %struct.patient]* %1, i64 0, i64 %35
  %37 = bitcast %struct.patient* %33 to i8*
  %38 = bitcast %struct.patient* %36 to i8*
  call void @llvm.memcpy.p0i8.p0i8.i64(i8* align 16 %37, i8* align 16 %38, i64 16, i1 false)
  %39 = load i32, i32* %5, align 4
  %40 = add nsw i32 %39, 1
  store i32 %40, i32* %5, align 4
  br label %41

41:                                               ; preds = %30, %13
  br label %42

42:                                               ; preds = %41
  %43 = load i32, i32* %7, align 4
  %44 = add nsw i32 %43, 1
  store i32 %44, i32* %7, align 4
  br label %9

45:                                               ; preds = %9
  %46 = load i32, i32* %5, align 4
  %47 = sub nsw i32 %46, 1
  store i32 %47, i32* %7, align 4
  br label %48

48:                                               ; preds = %95, %45
  %49 = load i32, i32* %7, align 4
  %50 = icmp sgt i32 %49, 0
  br i1 %50, label %51, label %98

51:                                               ; preds = %48
  store i32 0, i32* %6, align 4
  br label %52

52:                                               ; preds = %91, %51
  %53 = load i32, i32* %6, align 4
  %54 = load i32, i32* %7, align 4
  %55 = icmp slt i32 %53, %54
  br i1 %55, label %56, label %94

56:                                               ; preds = %52
  %57 = load i32, i32* %6, align 4
  %58 = sext i32 %57 to i64
  %59 = getelementptr inbounds [100 x %struct.patient], [100 x %struct.patient]* %2, i64 0, i64 %58
  %60 = getelementptr inbounds %struct.patient, %struct.patient* %59, i32 0, i32 1
  %61 = load i32, i32* %60, align 4
  %62 = load i32, i32* %6, align 4
  %63 = add nsw i32 %62, 1
  %64 = sext i32 %63 to i64
  %65 = getelementptr inbounds [100 x %struct.patient], [100 x %struct.patient]* %2, i64 0, i64 %64
  %66 = getelementptr inbounds %struct.patient, %struct.patient* %65, i32 0, i32 1
  %67 = load i32, i32* %66, align 4
  %68 = icmp slt i32 %61, %67
  br i1 %68, label %69, label %90

69:                                               ; preds = %56
  %70 = load i32, i32* %6, align 4
  %71 = sext i32 %70 to i64
  %72 = getelementptr inbounds [100 x %struct.patient], [100 x %struct.patient]* %2, i64 0, i64 %71
  %73 = bitcast %struct.patient* %3 to i8*
  %74 = bitcast %struct.patient* %72 to i8*
  call void @llvm.memcpy.p0i8.p0i8.i64(i8* align 4 %73, i8* align 16 %74, i64 16, i1 false)
  %75 = load i32, i32* %6, align 4
  %76 = sext i32 %75 to i64
  %77 = getelementptr inbounds [100 x %struct.patient], [100 x %struct.patient]* %2, i64 0, i64 %76
  %78 = load i32, i32* %6, align 4
  %79 = add nsw i32 %78, 1
  %80 = sext i32 %79 to i64
  %81 = getelementptr inbounds [100 x %struct.patient], [100 x %struct.patient]* %2, i64 0, i64 %80
  %82 = bitcast %struct.patient* %77 to i8*
  %83 = bitcast %struct.patient* %81 to i8*
  call void @llvm.memcpy.p0i8.p0i8.i64(i8* align 16 %82, i8* align 16 %83, i64 16, i1 false)
  %84 = load i32, i32* %6, align 4
  %85 = add nsw i32 %84, 1
  %86 = sext i32 %85 to i64
  %87 = getelementptr inbounds [100 x %struct.patient], [100 x %struct.patient]* %2, i64 0, i64 %86
  %88 = bitcast %struct.patient* %87 to i8*
  %89 = bitcast %struct.patient* %3 to i8*
  call void @llvm.memcpy.p0i8.p0i8.i64(i8* align 16 %88, i8* align 4 %89, i64 16, i1 false)
  br label %90

90:                                               ; preds = %69, %56
  br label %91

91:                                               ; preds = %90
  %92 = load i32, i32* %6, align 4
  %93 = add nsw i32 %92, 1
  store i32 %93, i32* %6, align 4
  br label %52

94:                                               ; preds = %52
  br label %95

95:                                               ; preds = %94
  %96 = load i32, i32* %7, align 4
  %97 = add nsw i32 %96, -1
  store i32 %97, i32* %7, align 4
  br label %48

98:                                               ; preds = %48
  store i32 0, i32* %7, align 4
  br label %99

99:                                               ; preds = %110, %98
  %100 = load i32, i32* %7, align 4
  %101 = load i32, i32* %5, align 4
  %102 = icmp slt i32 %100, %101
  br i1 %102, label %103, label %113

103:                                              ; preds = %99
  %104 = load i32, i32* %7, align 4
  %105 = sext i32 %104 to i64
  %106 = getelementptr inbounds [100 x %struct.patient], [100 x %struct.patient]* %2, i64 0, i64 %105
  %107 = getelementptr inbounds %struct.patient, %struct.patient* %106, i32 0, i32 0
  %108 = getelementptr inbounds [10 x i8], [10 x i8]* %107, i64 0, i64 0
  %109 = call i32 (i8*, ...) @printf(i8* getelementptr inbounds ([4 x i8], [4 x i8]* @.str.2, i64 0, i64 0), i8* %108)
  br label %110

110:                                              ; preds = %103
  %111 = load i32, i32* %7, align 4
  %112 = add nsw i32 %111, 1
  store i32 %112, i32* %7, align 4
  br label %99

113:                                              ; preds = %99
  store i32 0, i32* %7, align 4
  br label %114

114:                                              ; preds = %133, %113
  %115 = load i32, i32* %7, align 4
  %116 = load i32, i32* %4, align 4
  %117 = icmp slt i32 %115, %116
  br i1 %117, label %118, label %136

118:                                              ; preds = %114
  %119 = load i32, i32* %7, align 4
  %120 = sext i32 %119 to i64
  %121 = getelementptr inbounds [100 x %struct.patient], [100 x %struct.patient]* %1, i64 0, i64 %120
  %122 = getelementptr inbounds %struct.patient, %struct.patient* %121, i32 0, i32 1
  %123 = load i32, i32* %122, align 4
  %124 = icmp slt i32 %123, 60
  br i1 %124, label %125, label %132

125:                                              ; preds = %118
  %126 = load i32, i32* %7, align 4
  %127 = sext i32 %126 to i64
  %128 = getelementptr inbounds [100 x %struct.patient], [100 x %struct.patient]* %1, i64 0, i64 %127
  %129 = getelementptr inbounds %struct.patient, %struct.patient* %128, i32 0, i32 0
  %130 = getelementptr inbounds [10 x i8], [10 x i8]* %129, i64 0, i64 0
  %131 = call i32 (i8*, ...) @printf(i8* getelementptr inbounds ([4 x i8], [4 x i8]* @.str.2, i64 0, i64 0), i8* %130)
  br label %132

132:                                              ; preds = %125, %118
  br label %133

133:                                              ; preds = %132
  %134 = load i32, i32* %7, align 4
  %135 = add nsw i32 %134, 1
  store i32 %135, i32* %7, align 4
  br label %114

136:                                              ; preds = %114
  ret void
}

declare dso_local i32 @__isoc99_scanf(i8*, ...) #1

; Function Attrs: argmemonly nounwind willreturn
declare void @llvm.memcpy.p0i8.p0i8.i64(i8* noalias nocapture writeonly, i8* noalias nocapture readonly, i64, i1 immarg) #2

declare dso_local i32 @printf(i8*, ...) #1


!llvm.module.flags = !{!0}
!llvm.ident = !{!1}

!0 = !{i32 1, !"wchar_size", i32 4}
!1 = !{!"clang version 10.0.0-4ubuntu1 "}
